target datalayout = "e-m:e-p270:32:32-p271:32:32-p272:64:64-i64:64-i128:128-f80:128-n8:16:32:64-S128"
target triple = "x86_64-pc-linux-gnu"

%struct.Mio_GateStruct_t_ = type { ptr, double, ptr, ptr, ptr, ptr, ptr, ptr, i32, i32, i32, i32, double, ptr, ptr, %union.anon, i32 }
%union.anon = type { i64 }
%struct.Mio_PinStruct_t_ = type { ptr, i32, double, double, double, double, double, double, double, ptr }

; Function Attrs: nounwind uwtable
define ptr @Mio_PinReadNext(ptr noundef %0) #0 {
  %2 = alloca ptr, align 8
  store ptr %0, ptr %2, align 8, !tbaa !68
  %3 = load ptr, ptr %2, align 8, !tbaa !68
  %4 = getelementptr inbounds nuw %struct.Mio_PinStruct_t_, ptr %3, i32 0, i32 9
  %5 = load ptr, ptr %4, align 8, !tbaa !75
  ret ptr %5
}

; Function Attrs: nounwind uwtable
define ptr @Mio_PinReadName(ptr noundef %0) #0 {
  %2 = alloca ptr, align 8
  store ptr %0, ptr %2, align 8, !tbaa !68
  %3 = load ptr, ptr %2, align 8, !tbaa !68
  %4 = getelementptr inbounds nuw %struct.Mio_PinStruct_t_, ptr %3, i32 0, i32 0
  %5 = load ptr, ptr %4, align 8, !tbaa !69
  ret ptr %5
}

; Function Attrs: nounwind uwtable
define ptr @Mio_GateReadPins(ptr noundef %0) #0 {
  %2 = alloca ptr, align 8
  store ptr %0, ptr %2, align 8, !tbaa !28
  %3 = load ptr, ptr %2, align 8, !tbaa !28
  %4 = getelementptr inbounds nuw %struct.Mio_GateStruct_t_, ptr %3, i32 0, i32 3
  %5 = load ptr, ptr %4, align 8, !tbaa !37
  ret ptr %5
}

; Function Attrs: nounwind uwtable
define ptr @Mio_GateReadPinName(ptr noundef %0, i32 noundef %1) #0 {
  %3 = alloca ptr, align 8
  %4 = alloca ptr, align 8
  %5 = alloca i32, align 4
  %6 = alloca ptr, align 8
  %7 = alloca i32, align 4
  %8 = alloca i32, align 4
  store ptr %0, ptr %4, align 8, !tbaa !28
  store i32 %1, ptr %5, align 4, !tbaa !26
  call void @llvm.lifetime.start.p0(i64 8, ptr %6) #6
  call void @llvm.lifetime.start.p0(i64 4, ptr %7) #6
  store i32 0, ptr %7, align 4, !tbaa !26
  %9 = load ptr, ptr %4, align 8, !tbaa !28
  %10 = call ptr @Mio_GateReadPins(ptr noundef %9)
  store ptr %10, ptr %6, align 8, !tbaa !68
  br label %11

11:                                               ; preds = %23, %2
  %12 = load ptr, ptr %6, align 8, !tbaa !68
  %13 = icmp ne ptr %12, null
  br i1 %13, label %14, label %26

14:                                               ; preds = %11
  %15 = load i32, ptr %7, align 4, !tbaa !26
  %16 = add nsw i32 %15, 1
  store i32 %16, ptr %7, align 4, !tbaa !26
  %17 = load i32, ptr %5, align 4, !tbaa !26
  %18 = icmp eq i32 %15, %17
  br i1 %18, label %19, label %22

19:                                               ; preds = %14
  %20 = load ptr, ptr %6, align 8, !tbaa !68
  %21 = call ptr @Mio_PinReadName(ptr noundef %20)
  store ptr %21, ptr %3, align 8
  store i32 1, ptr %8, align 4
  br label %27

22:                                               ; preds = %14
  br label %23

23:                                               ; preds = %22
  %24 = load ptr, ptr %6, align 8, !tbaa !68
  %25 = call ptr @Mio_PinReadNext(ptr noundef %24)
  store ptr %25, ptr %6, align 8, !tbaa !68
  br label %11, !llvm.loop !76

26:                                               ; preds = %11
  store ptr null, ptr %3, align 8
  store i32 1, ptr %8, align 4
  br label %27

27:                                               ; preds = %26, %19
  call void @llvm.lifetime.end.p0(i64 4, ptr %7) #6
  call void @llvm.lifetime.end.p0(i64 8, ptr %6) #6
  %28 = load ptr, ptr %3, align 8
  ret ptr %28
}