; Function Attrs: nofree norecurse nosync nounwind memory(read, inaccessiblemem: none) uwtable
define ptr @Mio_GateReadPinName(ptr noundef readonly captures(none) %0, i32 noundef %1) local_unnamed_addr #9 {
  %3 = getelementptr inbounds nuw i8, ptr %0, i64 24
  %.069 = load ptr, ptr %3, align 8, !tbaa !70
  %.not10 = icmp eq ptr %.069, null
  br i1 %.not10, label %.loopexit, label %.lr.ph

.lr.ph:                                           ; preds = %2, %7
  %.0612 = phi ptr [ %.06, %7 ], [ %.069, %2 ]
  %.011 = phi i32 [ %8, %7 ], [ 0, %2 ]
  %4 = icmp eq i32 %.011, %1
  br i1 %4, label %5, label %7

5:                                                ; preds = %.lr.ph
  %6 = load ptr, ptr %.0612, align 8, !tbaa !63
  br label %.loopexit

7:                                                ; preds = %.lr.ph
  %8 = add nuw nsw i32 %.011, 1
  %9 = getelementptr inbounds nuw i8, ptr %.0612, i64 72
  %.06 = load ptr, ptr %9, align 8, !tbaa !70
  %.not = icmp eq ptr %.06, null
  br i1 %.not, label %.loopexit, label %.lr.ph, !llvm.loop !71

.loopexit:                                        ; preds = %7, %2, %5
  %.07 = phi ptr [ %6, %5 ], [ null, %2 ], [ null, %7 ]
  ret ptr %.07
}